; Function Attrs: mustprogress nounwind uwtable
define internal fastcc void @_ZNSt6vectorIN19cmJSONHelperBuilder6ObjectIN12_GLOBAL__N_111RootPresetsEE6MemberESaIS5_EED2Ev(ptr nocapture noundef nonnull readonly align 8 dereferenceable(24) %0) unnamed_addr #4 align 2 personality ptr @__gxx_personality_v0 {
  %2 = load ptr, ptr %0, align 8
  %3 = getelementptr inbounds i8, ptr %0, i64 8
  %4 = load ptr, ptr %3, align 8
  %.not4.i.i.i = icmp eq ptr %2, %4
  br i1 %.not4.i.i.i, label %_ZSt8_DestroyIPN19cmJSONHelperBuilder6ObjectIN12_GLOBAL__N_111RootPresetsEE6MemberES5_EvT_S7_RSaIT0_E.exit, label %.lr.ph.i.i.i

.lr.ph.i.i.i:                                     ; preds = %1, %_ZSt8_DestroyIN19cmJSONHelperBuilder6ObjectIN12_GLOBAL__N_111RootPresetsEE6MemberEEvPT_.exit.i.i.i
  %.05.i.i.i = phi ptr [ %13, %_ZSt8_DestroyIN19cmJSONHelperBuilder6ObjectIN12_GLOBAL__N_111RootPresetsEE6MemberEEvPT_.exit.i.i.i ], [ %2, %1 ]
  %5 = getelementptr inbounds i8, ptr %.05.i.i.i, i64 32
  %6 = load ptr, ptr %5, align 8
  %.not.i.i.i.i.i.i.i = icmp eq ptr %6, null
  br i1 %.not.i.i.i.i.i.i.i, label %_ZSt8_DestroyIN19cmJSONHelperBuilder6ObjectIN12_GLOBAL__N_111RootPresetsEE6MemberEEvPT_.exit.i.i.i, label %7

7:                                                ; preds = %.lr.ph.i.i.i
  %8 = getelementptr inbounds i8, ptr %.05.i.i.i, i64 16
  %9 = invoke noundef zeroext i1 %6(ptr noundef nonnull align 8 dereferenceable(16) %8, ptr noundef nonnull align 8 dereferenceable(16) %8, i32 noundef 3)
          to label %_ZSt8_DestroyIN19cmJSONHelperBuilder6ObjectIN12_GLOBAL__N_111RootPresetsEE6MemberEEvPT_.exit.i.i.i unwind label %10

10:                                               ; preds = %7
  %11 = landingpad { ptr, i32 }
          catch ptr null
  %12 = extractvalue { ptr, i32 } %11, 0
  tail call void @__clang_call_terminate(ptr %12) #22
  unreachable

_ZSt8_DestroyIN19cmJSONHelperBuilder6ObjectIN12_GLOBAL__N_111RootPresetsEE6MemberEEvPT_.exit.i.i.i: ; preds = %7, %.lr.ph.i.i.i
  %13 = getelementptr inbounds i8, ptr %.05.i.i.i, i64 56
  %.not.i.i.i = icmp eq ptr %13, %4
  br i1 %.not.i.i.i, label %_ZSt8_DestroyIPN19cmJSONHelperBuilder6ObjectIN12_GLOBAL__N_111RootPresetsEE6MemberES5_EvT_S7_RSaIT0_E.exitthread-pre-split, label %.lr.ph.i.i.i, !llvm.loop !22

_ZSt8_DestroyIPN19cmJSONHelperBuilder6ObjectIN12_GLOBAL__N_111RootPresetsEE6MemberES5_EvT_S7_RSaIT0_E.exitthread-pre-split: ; preds = %_ZSt8_DestroyIN19cmJSONHelperBuilder6ObjectIN12_GLOBAL__N_111RootPresetsEE6MemberEEvPT_.exit.i.i.i
  %.val.pr = load ptr, ptr %0, align 8
  br label %_ZSt8_DestroyIPN19cmJSONHelperBuilder6ObjectIN12_GLOBAL__N_111RootPresetsEE6MemberES5_EvT_S7_RSaIT0_E.exit

_ZSt8_DestroyIPN19cmJSONHelperBuilder6ObjectIN12_GLOBAL__N_111RootPresetsEE6MemberES5_EvT_S7_RSaIT0_E.exit: ; preds = %_ZSt8_DestroyIPN19cmJSONHelperBuilder6ObjectIN12_GLOBAL__N_111RootPresetsEE6MemberES5_EvT_S7_RSaIT0_E.exitthread-pre-split, %1
  %.val = phi ptr [ %.val.pr, %_ZSt8_DestroyIPN19cmJSONHelperBuilder6ObjectIN12_GLOBAL__N_111RootPresetsEE6MemberES5_EvT_S7_RSaIT0_E.exitthread-pre-split ], [ %2, %1 ]
  %.not.i.i = icmp eq ptr %.val, null
  br i1 %.not.i.i, label %_ZNSt12_Vector_baseIN19cmJSONHelperBuilder6ObjectIN12_GLOBAL__N_111RootPresetsEE6MemberESaIS5_EED2Ev.exit, label %14

14:                                               ; preds = %_ZSt8_DestroyIPN19cmJSONHelperBuilder6ObjectIN12_GLOBAL__N_111RootPresetsEE6MemberES5_EvT_S7_RSaIT0_E.exit
  tail call void @_ZdlPv(ptr noundef nonnull %.val) #26
  br label %_ZNSt12_Vector_baseIN19cmJSONHelperBuilder6ObjectIN12_GLOBAL__N_111RootPresetsEE6MemberESaIS5_EED2Ev.exit

_ZNSt12_Vector_baseIN19cmJSONHelperBuilder6ObjectIN12_GLOBAL__N_111RootPresetsEE6MemberESaIS5_EED2Ev.exit: ; preds = %_ZSt8_DestroyIPN19cmJSONHelperBuilder6ObjectIN12_GLOBAL__N_111RootPresetsEE6MemberES5_EvT_S7_RSaIT0_E.exit, %14
  ret void
}